target datalayout = "e-m:e-p270:32:32-p271:32:32-p272:64:64-i64:64-i128:128-f80:128-n8:16:32:64-S128"
target triple = "x86_64-pc-linux-gnu"

%struct.ExtensionControlFile = type { ptr, ptr, ptr, ptr, ptr, ptr, i8, i8, i8, i32, ptr, ptr }
%struct.FunctionCallInfoBaseData = type { ptr, ptr, ptr, i32, i8, i16, [0 x %struct.NullableDatum] }
%struct.NullableDatum = type { i64, i8 }
%struct.dirent = type { i64, i64, i16, i8, [256 x i8] }
%struct.ReturnSetInfo = type { i32, ptr, ptr, i32, i32, i32, ptr, ptr }

@.str.10 = private unnamed_addr constant [3 x i8] c"--\00", align 1
@my_exec_path = external global [0 x i8], align 1
@.str.106 = private unnamed_addr constant [13 x i8] c"%s/extension\00", align 1
@.str.107 = private unnamed_addr constant [9 x i8] c".control\00", align 1

; Function Attrs: inlinehint nounwind uwtable
define internal i64 @PointerGetDatum(ptr noundef %0) #3 {
  %2 = alloca ptr, align 8
  store ptr %0, ptr %2, align 8
  %3 = load ptr, ptr %2, align 8
  %4 = ptrtoint ptr %3 to i64
  ret i64 %4
}

; Function Attrs: inlinehint nounwind uwtable
define internal i64 @CStringGetDatum(ptr noundef %0) #3 {
  %2 = alloca ptr, align 8
  store ptr %0, ptr %2, align 8
  %3 = load ptr, ptr %2, align 8
  %4 = call i64 @PointerGetDatum(ptr noundef %3)
  ret i64 %4
}

; Function Attrs: nounwind uwtable
define internal ptr @read_extension_control_file(ptr noundef %0) #0 {
  %2 = alloca ptr, align 8
  %3 = alloca ptr, align 8
  store ptr %0, ptr %2, align 8
  call void @llvm.lifetime.start.p0(i64 8, ptr %3) #12
  %4 = call ptr @palloc0(i64 noundef 72)
  store ptr %4, ptr %3, align 8
  %5 = load ptr, ptr %2, align 8
  %6 = call ptr @pstrdup(ptr noundef %5)
  %7 = load ptr, ptr %3, align 8
  %8 = getelementptr inbounds nuw %struct.ExtensionControlFile, ptr %7, i32 0, i32 0
  store ptr %6, ptr %8, align 8
  %9 = load ptr, ptr %3, align 8
  %10 = getelementptr inbounds nuw %struct.ExtensionControlFile, ptr %9, i32 0, i32 6
  store i8 0, ptr %10, align 8
  %11 = load ptr, ptr %3, align 8
  %12 = getelementptr inbounds nuw %struct.ExtensionControlFile, ptr %11, i32 0, i32 7
  store i8 1, ptr %12, align 1
  %13 = load ptr, ptr %3, align 8
  %14 = getelementptr inbounds nuw %struct.ExtensionControlFile, ptr %13, i32 0, i32 8
  store i8 0, ptr %14, align 2
  %15 = load ptr, ptr %3, align 8
  %16 = getelementptr inbounds nuw %struct.ExtensionControlFile, ptr %15, i32 0, i32 9
  store i32 -1, ptr %16, align 4
  %17 = load ptr, ptr %3, align 8
  call void @parse_extension_control_file(ptr noundef %17, ptr noundef null)
  %18 = load ptr, ptr %3, align 8
  call void @llvm.lifetime.end.p0(i64 8, ptr %3) #12
  ret ptr %18
}

; Function Attrs: nounwind uwtable
define internal zeroext i1 @is_extension_control_filename(ptr noundef %0) #0 {
  %2 = alloca ptr, align 8
  %3 = alloca ptr, align 8
  store ptr %0, ptr %2, align 8
  call void @llvm.lifetime.start.p0(i64 8, ptr %3) #12
  %4 = load ptr, ptr %2, align 8
  %5 = call ptr @strrchr(ptr noundef %4, i32 noundef 46) #14
  store ptr %5, ptr %3, align 8
  %6 = load ptr, ptr %3, align 8
  %7 = icmp ne ptr %6, null
  br i1 %7, label %8, label %12

8:                                                ; preds = %1
  %9 = load ptr, ptr %3, align 8
  %10 = call i32 @strcmp(ptr noundef %9, ptr noundef @.str.107) #14
  %11 = icmp eq i32 %10, 0
  br label %12

12:                                               ; preds = %8, %1
  %13 = phi i1 [ false, %1 ], [ %11, %8 ]
  call void @llvm.lifetime.end.p0(i64 8, ptr %3) #12
  ret i1 %13
}

; Function Attrs: nounwind uwtable
define internal ptr @get_extension_control_directory() #0 {
  %1 = alloca [1024 x i8], align 16
  %2 = alloca ptr, align 8
  call void @llvm.lifetime.start.p0(i64 1024, ptr %1) #12
  call void @llvm.lifetime.start.p0(i64 8, ptr %2) #12
  %3 = getelementptr inbounds [1024 x i8], ptr %1, i64 0, i64 0
  call void @get_share_path(ptr noundef @my_exec_path, ptr noundef %3)
  %4 = call ptr @palloc(i64 noundef 1024)
  store ptr %4, ptr %2, align 8
  %5 = load ptr, ptr %2, align 8
  %6 = getelementptr inbounds [1024 x i8], ptr %1, i64 0, i64 0
  %7 = call i32 (ptr, i64, ptr, ...) @pg_snprintf(ptr noundef %5, i64 noundef 1024, ptr noundef @.str.106, ptr noundef %6)
  %8 = load ptr, ptr %2, align 8
  call void @llvm.lifetime.end.p0(i64 8, ptr %2) #12
  call void @llvm.lifetime.end.p0(i64 1024, ptr %1) #12
  ret ptr %8
}

; Function Attrs: nounwind uwtable
define dso_local i64 @pg_available_extensions(ptr noundef %0) #0 {
  %2 = alloca ptr, align 8
  %3 = alloca ptr, align 8
  %4 = alloca ptr, align 8
  %5 = alloca ptr, align 8
  %6 = alloca ptr, align 8
  %7 = alloca ptr, align 8
  %8 = alloca ptr, align 8
  %9 = alloca [3 x i64], align 16
  %10 = alloca [3 x i8], align 1
  %11 = alloca i32, align 4
  store ptr %0, ptr %2, align 8
  call void @llvm.lifetime.start.p0(i64 8, ptr %3) #12
  %12 = load ptr, ptr %2, align 8
  %13 = getelementptr inbounds nuw %struct.FunctionCallInfoBaseData, ptr %12, i32 0, i32 2
  %14 = load ptr, ptr %13, align 8
  store ptr %14, ptr %3, align 8
  call void @llvm.lifetime.start.p0(i64 8, ptr %4) #12
  call void @llvm.lifetime.start.p0(i64 8, ptr %5) #12
  call void @llvm.lifetime.start.p0(i64 8, ptr %6) #12
  %15 = load ptr, ptr %2, align 8
  call void @InitMaterializedSRF(ptr noundef %15, i32 noundef 0)
  %16 = call ptr @get_extension_control_directory()
  store ptr %16, ptr %4, align 8
  %17 = load ptr, ptr %4, align 8
  %18 = call ptr @AllocateDir(ptr noundef %17)
  store ptr %18, ptr %5, align 8
  %19 = load ptr, ptr %5, align 8
  %20 = icmp eq ptr %19, null
  br i1 %20, label %21, label %26

21:                                               ; preds = %1
  %22 = call ptr @__errno_location() #16
  %23 = load i32, ptr %22, align 4
  %24 = icmp eq i32 %23, 2
  br i1 %24, label %25, label %26

25:                                               ; preds = %21
  br label %102

26:                                               ; preds = %21, %1
  br label %27

27:                                               ; preds = %98, %96, %26
  %28 = load ptr, ptr %5, align 8
  %29 = load ptr, ptr %4, align 8
  %30 = call ptr @ReadDir(ptr noundef %28, ptr noundef %29)
  store ptr %30, ptr %6, align 8
  %31 = icmp ne ptr %30, null
  br i1 %31, label %32, label %99

32:                                               ; preds = %27
  call void @llvm.lifetime.start.p0(i64 8, ptr %7) #12
  call void @llvm.lifetime.start.p0(i64 8, ptr %8) #12
  call void @llvm.lifetime.start.p0(i64 24, ptr %9) #12
  call void @llvm.lifetime.start.p0(i64 3, ptr %10) #12
  %33 = load ptr, ptr %6, align 8
  %34 = getelementptr inbounds nuw %struct.dirent, ptr %33, i32 0, i32 4
  %35 = getelementptr inbounds [256 x i8], ptr %34, i64 0, i64 0
  %36 = call zeroext i1 @is_extension_control_filename(ptr noundef %35)
  br i1 %36, label %38, label %37

37:                                               ; preds = %32
  store i32 2, ptr %11, align 4
  br label %96, !llvm.loop !10

38:                                               ; preds = %32
  %39 = load ptr, ptr %6, align 8
  %40 = getelementptr inbounds nuw %struct.dirent, ptr %39, i32 0, i32 4
  %41 = getelementptr inbounds [256 x i8], ptr %40, i64 0, i64 0
  %42 = call ptr @pstrdup(ptr noundef %41)
  store ptr %42, ptr %8, align 8
  %43 = load ptr, ptr %8, align 8
  %44 = call ptr @strrchr(ptr noundef %43, i32 noundef 46) #14
  store i8 0, ptr %44, align 1
  %45 = load ptr, ptr %8, align 8
  %46 = call ptr @strstr(ptr noundef %45, ptr noundef @.str.10) #14
  %47 = icmp ne ptr %46, null
  br i1 %47, label %48, label %49

48:                                               ; preds = %38
  store i32 2, ptr %11, align 4
  br label %96, !llvm.loop !10

49:                                               ; preds = %38
  %50 = load ptr, ptr %8, align 8
  %51 = call ptr @read_extension_control_file(ptr noundef %50)
  store ptr %51, ptr %7, align 8
  %52 = getelementptr inbounds [3 x i64], ptr %9, i64 0, i64 0
  call void @llvm.memset.p0.i64(ptr align 16 %52, i8 0, i64 24, i1 false)
  %53 = getelementptr inbounds [3 x i8], ptr %10, i64 0, i64 0
  call void @llvm.memset.p0.i64(ptr align 1 %53, i8 0, i64 3, i1 false)
  %54 = load ptr, ptr %7, align 8
  %55 = getelementptr inbounds nuw %struct.ExtensionControlFile, ptr %54, i32 0, i32 0
  %56 = load ptr, ptr %55, align 8
  %57 = call i64 @CStringGetDatum(ptr noundef %56)
  %58 = call i64 @DirectFunctionCall1Coll(ptr noundef @namein, i32 noundef 0, i64 noundef %57)
  %59 = getelementptr inbounds [3 x i64], ptr %9, i64 0, i64 0
  store i64 %58, ptr %59, align 16
  %60 = load ptr, ptr %7, align 8
  %61 = getelementptr inbounds nuw %struct.ExtensionControlFile, ptr %60, i32 0, i32 2
  %62 = load ptr, ptr %61, align 8
  %63 = icmp eq ptr %62, null
  br i1 %63, label %64, label %66

64:                                               ; preds = %49
  %65 = getelementptr inbounds [3 x i8], ptr %10, i64 0, i64 1
  store i8 1, ptr %65, align 1
  br label %73

66:                                               ; preds = %49
  %67 = load ptr, ptr %7, align 8
  %68 = getelementptr inbounds nuw %struct.ExtensionControlFile, ptr %67, i32 0, i32 2
  %69 = load ptr, ptr %68, align 8
  %70 = call ptr @cstring_to_text(ptr noundef %69)
  %71 = call i64 @PointerGetDatum(ptr noundef %70)
  %72 = getelementptr inbounds [3 x i64], ptr %9, i64 0, i64 1
  store i64 %71, ptr %72, align 8
  br label %73

73:                                               ; preds = %66, %64
  %74 = load ptr, ptr %7, align 8
  %75 = getelementptr inbounds nuw %struct.ExtensionControlFile, ptr %74, i32 0, i32 4
  %76 = load ptr, ptr %75, align 8
  %77 = icmp eq ptr %76, null
  br i1 %77, label %78, label %80

78:                                               ; preds = %73
  %79 = getelementptr inbounds [3 x i8], ptr %10, i64 0, i64 2
  store i8 1, ptr %79, align 1
  br label %87

80:                                               ; preds = %73
  %81 = load ptr, ptr %7, align 8
  %82 = getelementptr inbounds nuw %struct.ExtensionControlFile, ptr %81, i32 0, i32 4
  %83 = load ptr, ptr %82, align 8
  %84 = call ptr @cstring_to_text(ptr noundef %83)
  %85 = call i64 @PointerGetDatum(ptr noundef %84)
  %86 = getelementptr inbounds [3 x i64], ptr %9, i64 0, i64 2
  store i64 %85, ptr %86, align 16
  br label %87

87:                                               ; preds = %80, %78
  %88 = load ptr, ptr %3, align 8
  %89 = getelementptr inbounds nuw %struct.ReturnSetInfo, ptr %88, i32 0, i32 6
  %90 = load ptr, ptr %89, align 8
  %91 = load ptr, ptr %3, align 8
  %92 = getelementptr inbounds nuw %struct.ReturnSetInfo, ptr %91, i32 0, i32 7
  %93 = load ptr, ptr %92, align 8
  %94 = getelementptr inbounds [3 x i64], ptr %9, i64 0, i64 0
  %95 = getelementptr inbounds [3 x i8], ptr %10, i64 0, i64 0
  call void @tuplestore_putvalues(ptr noundef %90, ptr noundef %93, ptr noundef %94, ptr noundef %95)
  store i32 0, ptr %11, align 4
  br label %96

96:                                               ; preds = %87, %48, %37
  call void @llvm.lifetime.end.p0(i64 3, ptr %10) #12
  call void @llvm.lifetime.end.p0(i64 24, ptr %9) #12
  call void @llvm.lifetime.end.p0(i64 8, ptr %8) #12
  call void @llvm.lifetime.end.p0(i64 8, ptr %7) #12
  %97 = load i32, ptr %11, align 4
  switch i32 %97, label %103 [
    i32 0, label %98
    i32 2, label %27
  ]

98:                                               ; preds = %96
  br label %27, !llvm.loop !10

99:                                               ; preds = %27
  %100 = load ptr, ptr %5, align 8
  %101 = call i32 @FreeDir(ptr noundef %100)
  br label %102

102:                                              ; preds = %99, %25
  store i32 1, ptr %11, align 4
  call void @llvm.lifetime.end.p0(i64 8, ptr %6) #12
  call void @llvm.lifetime.end.p0(i64 8, ptr %5) #12
  call void @llvm.lifetime.end.p0(i64 8, ptr %4) #12
  call void @llvm.lifetime.end.p0(i64 8, ptr %3) #12
  ret i64 0

103:                                              ; preds = %96
  unreachable
}