; Function Attrs: nounwind uwtable
define dso_local noundef i64 @pg_available_extensions(ptr noundef %0) local_unnamed_addr #0 {
  %2 = alloca [1024 x i8], align 16
  %3 = alloca [3 x i64], align 16
  %4 = alloca [3 x i8], align 1
  %5 = getelementptr inbounds nuw i8, ptr %0, i64 16
  %6 = load ptr, ptr %5, align 8
  tail call void @InitMaterializedSRF(ptr noundef %0, i32 noundef 0) #15
  call void @llvm.lifetime.start.p0(i64 1024, ptr nonnull %2) #15
  call void @get_share_path(ptr noundef nonnull @my_exec_path, ptr noundef nonnull %2) #15
  %7 = call ptr @palloc(i64 noundef 1024) #15
  %8 = call i32 (ptr, i64, ptr, ...) @pg_snprintf(ptr noundef %7, i64 noundef 1024, ptr noundef nonnull @.str.106, ptr noundef nonnull %2) #15
  call void @llvm.lifetime.end.p0(i64 1024, ptr nonnull %2) #15
  %9 = call ptr @AllocateDir(ptr noundef %7) #15
  %10 = icmp eq ptr %9, null
  br i1 %10, label %11, label %15

11:                                               ; preds = %1
  %12 = tail call ptr @__errno_location() #19
  %13 = load i32, ptr %12, align 4
  %14 = icmp eq i32 %13, 2
  br i1 %14, label %63, label %15

15:                                               ; preds = %11, %1
  %16 = call ptr @ReadDir(ptr noundef %9, ptr noundef %7) #15
  %.not22 = icmp eq ptr %16, null
  br i1 %.not22, label %._crit_edge, label %.lr.ph

.lr.ph:                                           ; preds = %15
  %17 = getelementptr inbounds nuw i8, ptr %3, i64 8
  %18 = getelementptr inbounds nuw i8, ptr %4, i64 1
  %19 = getelementptr inbounds nuw i8, ptr %3, i64 16
  %20 = getelementptr inbounds nuw i8, ptr %4, i64 2
  %21 = getelementptr inbounds nuw i8, ptr %6, i64 40
  %22 = getelementptr inbounds nuw i8, ptr %6, i64 48
  br label %23

23:                                               ; preds = %.lr.ph, %is_extension_control_filename.exit.thread
  %24 = phi ptr [ %16, %.lr.ph ], [ %61, %is_extension_control_filename.exit.thread ]
  call void @llvm.lifetime.start.p0(i64 24, ptr nonnull %3) #15
  call void @llvm.lifetime.start.p0(i64 3, ptr nonnull %4) #15
  %25 = getelementptr inbounds nuw i8, ptr %24, i64 19
  %26 = call ptr @strrchr(ptr noundef nonnull readonly dereferenceable(1) %25, i32 noundef 46) #17
  %.not.i = icmp eq ptr %26, null
  br i1 %.not.i, label %is_extension_control_filename.exit.thread, label %is_extension_control_filename.exit

is_extension_control_filename.exit:               ; preds = %23
  %27 = call i32 @strcmp(ptr noundef nonnull dereferenceable(1) %26, ptr noundef nonnull dereferenceable(9) @.str.107) #17
  %28 = icmp eq i32 %27, 0
  br i1 %28, label %29, label %is_extension_control_filename.exit.thread, !llvm.loop !6

29:                                               ; preds = %is_extension_control_filename.exit
  %30 = call ptr @pstrdup(ptr noundef nonnull %25) #15
  %31 = call ptr @strrchr(ptr noundef nonnull dereferenceable(1) %30, i32 noundef 46) #17
  store i8 0, ptr %31, align 1
  %32 = call ptr @strstr(ptr noundef nonnull dereferenceable(1) %30, ptr noundef nonnull dereferenceable(1) @.str.10) #17
  %.not21 = icmp eq ptr %32, null
  br i1 %.not21, label %33, label %is_extension_control_filename.exit.thread, !llvm.loop !6

33:                                               ; preds = %29
  %34 = call ptr @palloc0(i64 noundef 72) #15
  %35 = call ptr @pstrdup(ptr noundef nonnull %30) #15
  store ptr %35, ptr %34, align 8
  %36 = getelementptr inbounds nuw i8, ptr %34, i64 48
  store i8 0, ptr %36, align 8
  %37 = getelementptr inbounds nuw i8, ptr %34, i64 49
  store i8 1, ptr %37, align 1
  %38 = getelementptr inbounds nuw i8, ptr %34, i64 50
  store i8 0, ptr %38, align 2
  %39 = getelementptr inbounds nuw i8, ptr %34, i64 52
  store i32 -1, ptr %39, align 4
  call fastcc void @parse_extension_control_file(ptr noundef nonnull %34, ptr noundef null)
  call void @llvm.memset.p0.i64(ptr noundef nonnull align 16 dereferenceable(24) %3, i8 0, i64 24, i1 false)
  call void @llvm.memset.p0.i64(ptr noundef nonnull align 1 dereferenceable(3) %4, i8 0, i64 3, i1 false)
  %40 = load ptr, ptr %34, align 8
  %41 = ptrtoint ptr %40 to i64
  %42 = call i64 @DirectFunctionCall1Coll(ptr noundef nonnull @namein, i32 noundef 0, i64 noundef %41) #15
  store i64 %42, ptr %3, align 16
  %43 = getelementptr inbounds nuw i8, ptr %34, i64 16
  %44 = load ptr, ptr %43, align 8
  %45 = icmp eq ptr %44, null
  br i1 %45, label %46, label %47

46:                                               ; preds = %33
  store i8 1, ptr %18, align 1
  br label %50

47:                                               ; preds = %33
  %48 = call ptr @cstring_to_text(ptr noundef nonnull %44) #15
  %49 = ptrtoint ptr %48 to i64
  store i64 %49, ptr %17, align 8
  br label %50

50:                                               ; preds = %47, %46
  %51 = getelementptr inbounds nuw i8, ptr %34, i64 32
  %52 = load ptr, ptr %51, align 8
  %53 = icmp eq ptr %52, null
  br i1 %53, label %54, label %55

54:                                               ; preds = %50
  store i8 1, ptr %20, align 1
  br label %58

55:                                               ; preds = %50
  %56 = call ptr @cstring_to_text(ptr noundef nonnull %52) #15
  %57 = ptrtoint ptr %56 to i64
  store i64 %57, ptr %19, align 16
  br label %58

58:                                               ; preds = %55, %54
  %59 = load ptr, ptr %21, align 8
  %60 = load ptr, ptr %22, align 8
  call void @tuplestore_putvalues(ptr noundef %59, ptr noundef %60, ptr noundef nonnull %3, ptr noundef nonnull %4) #15
  br label %is_extension_control_filename.exit.thread

is_extension_control_filename.exit.thread:        ; preds = %23, %29, %is_extension_control_filename.exit, %58
  call void @llvm.lifetime.end.p0(i64 3, ptr nonnull %4) #15
  call void @llvm.lifetime.end.p0(i64 24, ptr nonnull %3) #15
  %61 = call ptr @ReadDir(ptr noundef %9, ptr noundef %7) #15
  %.not = icmp eq ptr %61, null
  br i1 %.not, label %._crit_edge, label %23

._crit_edge:                                      ; preds = %is_extension_control_filename.exit.thread, %15
  %62 = call i32 @FreeDir(ptr noundef %9) #15
  br label %63

63:                                               ; preds = %11, %._crit_edge
  ret i64 0
}